target datalayout = "e-m:e-p270:32:32-p271:32:32-p272:64:64-i64:64-i128:128-f80:128-n8:16:32:64-S128"
target triple = "x86_64-unknown-linux-gnu"

%"class.icu_75::UObject" = type { ptr }
%"class.icu_75::TextTrieMap" = type { ptr, i8, ptr, i32, i32, ptr, i8, ptr }
%"class.icu_75::TimeZoneNamesImpl" = type { %"class.icu_75::TimeZoneNames", %"class.icu_75::Locale", ptr, ptr, ptr, i8, i8, %"class.icu_75::TextTrieMap" }
%"class.icu_75::TimeZoneNames" = type { %"class.icu_75::UObject" }
%"class.icu_75::Locale" = type <{ %"class.icu_75::UObject", [12 x i8], [6 x i8], [4 x i8], [2 x i8], i32, [4 x i8], ptr, [157 x i8], [3 x i8], ptr, i8, [7 x i8] }>

@_ZTVN6icu_757UObjectE = external unnamed_addr constant { [5 x ptr] }, align 8
@_ZTVN6icu_7513TimeZoneNamesE = external unnamed_addr constant { [18 x ptr] }, align 8
@_ZN6icu_7511TextTrieMapC1EaPFvPvE = unnamed_addr alias void (ptr, i8, ptr), ptr @_ZN6icu_7511TextTrieMapC2EaPFvPvE
@_ZN6icu_7511TextTrieMapD1Ev = unnamed_addr alias void (ptr), ptr @_ZN6icu_7511TextTrieMapD2Ev

; Function Attrs: mustprogress nounwind uwtable
define linkonce_odr void @_ZN6icu_757UObjectC2Ev(ptr noundef nonnull align 8 dereferenceable(8) %this) unnamed_addr #0 comdat align 2 {
entry:
  %this.addr = alloca ptr, align 8
  store ptr %this, ptr %this.addr, align 8
  %this1 = load ptr, ptr %this.addr, align 8
  store ptr getelementptr inbounds ({ [5 x ptr] }, ptr @_ZTVN6icu_757UObjectE, i32 0, i32 0, i32 2), ptr %this1, align 8
  ret void
}

; Function Attrs: mustprogress nounwind uwtable
define linkonce_odr void @_ZN6icu_7513TimeZoneNamesC2Ev(ptr noundef nonnull align 8 dereferenceable(8) %this) unnamed_addr #0 comdat align 2 {
entry:
  %this.addr = alloca ptr, align 8
  store ptr %this, ptr %this.addr, align 8
  %this1 = load ptr, ptr %this.addr, align 8
  call void @_ZN6icu_757UObjectC2Ev(ptr noundef nonnull align 8 dereferenceable(8) %this1) #10
  store ptr getelementptr inbounds ({ [18 x ptr] }, ptr @_ZTVN6icu_7513TimeZoneNamesE, i32 0, i32 0, i32 2), ptr %this1, align 8
  ret void
}

; Function Attrs: mustprogress uwtable
define void @_ZN6icu_7517TimeZoneNamesImplC2ERKNS_6LocaleER10UErrorCode(ptr noundef nonnull align 8 dereferenceable(320) %this, ptr noundef nonnull align 8 dereferenceable(217) %locale, ptr noundef nonnull align 4 dereferenceable(4) %status) unnamed_addr #1 align 2 personality ptr @__gxx_personality_v0 {
entry:
  %this.addr = alloca ptr, align 8
  %locale.addr = alloca ptr, align 8
  %status.addr = alloca ptr, align 8
  %exn.slot = alloca ptr, align 8
  %ehselector.slot = alloca i32, align 4
  store ptr %this, ptr %this.addr, align 8
  store ptr %locale, ptr %locale.addr, align 8
  store ptr %status, ptr %status.addr, align 8
  %this1 = load ptr, ptr %this.addr, align 8
  call void @_ZN6icu_7513TimeZoneNamesC2Ev(ptr noundef nonnull align 8 dereferenceable(8) %this1) #10
  store ptr getelementptr inbounds ({ [18 x ptr] }, ptr @_ZTVN6icu_7517TimeZoneNamesImplE, i32 0, i32 0, i32 2), ptr %this1, align 8
  %fLocale = getelementptr inbounds %"class.icu_75::TimeZoneNamesImpl", ptr %this1, i32 0, i32 1
  %0 = load ptr, ptr %locale.addr, align 8
  invoke void @_ZN6icu_756LocaleC1ERKS0_(ptr noundef nonnull align 8 dereferenceable(217) %fLocale, ptr noundef nonnull align 8 dereferenceable(217) %0)
          to label %invoke.cont unwind label %lpad

invoke.cont:                                      ; preds = %entry
  %fZoneStrings = getelementptr inbounds %"class.icu_75::TimeZoneNamesImpl", ptr %this1, i32 0, i32 2
  store ptr null, ptr %fZoneStrings, align 8
  %fTZNamesMap = getelementptr inbounds %"class.icu_75::TimeZoneNamesImpl", ptr %this1, i32 0, i32 3
  store ptr null, ptr %fTZNamesMap, align 8
  %fMZNamesMap = getelementptr inbounds %"class.icu_75::TimeZoneNamesImpl", ptr %this1, i32 0, i32 4
  store ptr null, ptr %fMZNamesMap, align 8
  %fNamesTrieFullyLoaded = getelementptr inbounds %"class.icu_75::TimeZoneNamesImpl", ptr %this1, i32 0, i32 5
  store i8 0, ptr %fNamesTrieFullyLoaded, align 8
  %fNamesFullyLoaded = getelementptr inbounds %"class.icu_75::TimeZoneNamesImpl", ptr %this1, i32 0, i32 6
  store i8 0, ptr %fNamesFullyLoaded, align 1
  %fNamesTrie = getelementptr inbounds %"class.icu_75::TimeZoneNamesImpl", ptr %this1, i32 0, i32 7
  invoke void @_ZN6icu_7511TextTrieMapC1EaPFvPvE(ptr noundef nonnull align 8 dereferenceable(56) %fNamesTrie, i8 noundef signext 1, ptr noundef @_ZN6icu_75L15deleteZNameInfoEPv)
          to label %invoke.cont3 unwind label %lpad2

invoke.cont3:                                     ; preds = %invoke.cont
  %1 = load ptr, ptr %locale.addr, align 8
  %2 = load ptr, ptr %status.addr, align 8
  invoke void @_ZN6icu_7517TimeZoneNamesImpl10initializeERKNS_6LocaleER10UErrorCode(ptr noundef nonnull align 8 dereferenceable(320) %this1, ptr noundef nonnull align 8 dereferenceable(217) %1, ptr noundef nonnull align 4 dereferenceable(4) %2)
          to label %invoke.cont5 unwind label %lpad4

invoke.cont5:                                     ; preds = %invoke.cont3
  ret void

lpad:                                             ; preds = %entry
  %3 = landingpad { ptr, i32 }
          cleanup
  %4 = extractvalue { ptr, i32 } %3, 0
  store ptr %4, ptr %exn.slot, align 8
  %5 = extractvalue { ptr, i32 } %3, 1
  store i32 %5, ptr %ehselector.slot, align 4
  br label %ehcleanup6

lpad2:                                            ; preds = %invoke.cont
  %6 = landingpad { ptr, i32 }
          cleanup
  %7 = extractvalue { ptr, i32 } %6, 0
  store ptr %7, ptr %exn.slot, align 8
  %8 = extractvalue { ptr, i32 } %6, 1
  store i32 %8, ptr %ehselector.slot, align 4
  br label %ehcleanup

lpad4:                                            ; preds = %invoke.cont3
  %9 = landingpad { ptr, i32 }
          cleanup
  %10 = extractvalue { ptr, i32 } %9, 0
  store ptr %10, ptr %exn.slot, align 8
  %11 = extractvalue { ptr, i32 } %9, 1
  store i32 %11, ptr %ehselector.slot, align 4
  call void @_ZN6icu_7511TextTrieMapD1Ev(ptr noundef nonnull align 8 dereferenceable(56) %fNamesTrie) #10
  br label %ehcleanup

ehcleanup:                                        ; preds = %lpad4, %lpad2
  call void @_ZN6icu_756LocaleD1Ev(ptr noundef nonnull align 8 dereferenceable(217) %fLocale) #10
  br label %ehcleanup6

ehcleanup6:                                       ; preds = %ehcleanup, %lpad
  call void @_ZN6icu_7513TimeZoneNamesD2Ev(ptr noundef nonnull align 8 dereferenceable(8) %this1) #10
  br label %eh.resume

eh.resume:                                        ; preds = %ehcleanup6
  %exn = load ptr, ptr %exn.slot, align 8
  %sel = load i32, ptr %ehselector.slot, align 4
  %lpad.val = insertvalue { ptr, i32 } poison, ptr %exn, 0
  %lpad.val7 = insertvalue { ptr, i32 } %lpad.val, i32 %sel, 1
  resume { ptr, i32 } %lpad.val7
}