; Function Attrs: mustprogress uwtable
define void @_ZN6icu_7517TimeZoneNamesImplC2ERKNS_6LocaleER10UErrorCode(ptr noundef nonnull align 8 dereferenceable(320) %this, ptr noundef nonnull align 8 dereferenceable(217) %locale, ptr noundef nonnull align 4 dereferenceable(4) %status) unnamed_addr #1 align 2 personality ptr @__gxx_personality_v0 {
entry:
  store ptr getelementptr inbounds ({ [18 x ptr] }, ptr @_ZTVN6icu_7517TimeZoneNamesImplE, i64 0, i32 0, i64 2), ptr %this, align 8
  %fLocale = getelementptr inbounds i8, ptr %this, i64 8
  invoke void @_ZN6icu_756LocaleC1ERKS0_(ptr noundef nonnull align 8 dereferenceable(217) %fLocale, ptr noundef nonnull align 8 dereferenceable(217) %locale)
          to label %invoke.cont unwind label %lpad

invoke.cont:                                      ; preds = %entry
  %fZoneStrings = getelementptr inbounds i8, ptr %this, i64 232
  %fNamesTrie = getelementptr inbounds i8, ptr %this, i64 264
  tail call void @llvm.memset.p0.i64(ptr noundef nonnull align 8 dereferenceable(26) %fZoneStrings, i8 0, i64 26, i1 false)
  invoke void @_ZN6icu_7511TextTrieMapC1EaPFvPvE(ptr noundef nonnull align 8 dereferenceable(56) %fNamesTrie, i8 noundef signext 1, ptr noundef nonnull @_ZN6icu_75L15deleteZNameInfoEPv)
          to label %invoke.cont3 unwind label %lpad2

invoke.cont3:                                     ; preds = %invoke.cont
  invoke void @_ZN6icu_7517TimeZoneNamesImpl10initializeERKNS_6LocaleER10UErrorCode(ptr noundef nonnull align 8 dereferenceable(320) %this, ptr noundef nonnull align 8 dereferenceable(217) %locale, ptr noundef nonnull align 4 dereferenceable(4) %status)
          to label %invoke.cont5 unwind label %lpad4

invoke.cont5:                                     ; preds = %invoke.cont3
  ret void

lpad:                                             ; preds = %entry
  %0 = landingpad { ptr, i32 }
          cleanup
  br label %ehcleanup6

lpad2:                                            ; preds = %invoke.cont
  %1 = landingpad { ptr, i32 }
          cleanup
  br label %ehcleanup

lpad4:                                            ; preds = %invoke.cont3
  %2 = landingpad { ptr, i32 }
          cleanup
  tail call void @_ZN6icu_7511TextTrieMapD1Ev(ptr noundef nonnull align 8 dereferenceable(56) %fNamesTrie) #20
  br label %ehcleanup

ehcleanup:                                        ; preds = %lpad4, %lpad2
  %.pn = phi { ptr, i32 } [ %2, %lpad4 ], [ %1, %lpad2 ]
  tail call void @_ZN6icu_756LocaleD1Ev(ptr noundef nonnull align 8 dereferenceable(217) %fLocale) #20
  br label %ehcleanup6

ehcleanup6:                                       ; preds = %ehcleanup, %lpad
  %.pn.pn = phi { ptr, i32 } [ %.pn, %ehcleanup ], [ %0, %lpad ]
  tail call void @_ZN6icu_7513TimeZoneNamesD2Ev(ptr noundef nonnull align 8 dereferenceable(8) %this) #20
  resume { ptr, i32 } %.pn.pn
}